target datalayout = "e-m:e-p270:32:32-p271:32:32-p272:64:64-i64:64-i128:128-f80:128-n8:16:32:64-S128"
target triple = "x86_64-pc-linux-gnu"

%struct.SDL_EVDEV_keyboard_state = type { i32, i8, i32, ptr, [9 x i8], i8, i32, ptr, i32, i8, i8, i8, i8, i8, [128 x i8], i32, ptr, ptr, ptr, ptr }

; Function Attrs: nounwind uwtable
define internal void @chg_vc_kbd_led(ptr noundef %0, i32 noundef %1) #0 {
  %3 = alloca ptr, align 8
  %4 = alloca i32, align 4
  store ptr %0, ptr %3, align 8
  store i32 %1, ptr %4, align 4
  %5 = load i32, ptr %4, align 4
  %6 = load ptr, ptr %3, align 8
  %7 = getelementptr inbounds nuw %struct.SDL_EVDEV_keyboard_state, ptr %6, i32 0, i32 12
  %8 = load i8, ptr %7, align 1
  %9 = zext i8 %8 to i32
  %10 = xor i32 %9, %5
  %11 = trunc i32 %10 to i8
  store i8 %11, ptr %7, align 1
  %12 = load ptr, ptr %3, align 8
  %13 = getelementptr inbounds nuw %struct.SDL_EVDEV_keyboard_state, ptr %12, i32 0, i32 0
  %14 = load i32, ptr %13, align 8
  %15 = load ptr, ptr %3, align 8
  %16 = getelementptr inbounds nuw %struct.SDL_EVDEV_keyboard_state, ptr %15, i32 0, i32 12
  %17 = load i8, ptr %16, align 1
  %18 = zext i8 %17 to i64
  %19 = call i32 (i32, i64, ...) @ioctl(i32 noundef %14, i64 noundef 19250, i64 noundef %18) #7
  ret void
}

; Function Attrs: nounwind uwtable
define internal void @fn_num(ptr noundef %0) #0 {
  %2 = alloca ptr, align 8
  store ptr %0, ptr %2, align 8
  %3 = load ptr, ptr %2, align 8
  %4 = getelementptr inbounds nuw %struct.SDL_EVDEV_keyboard_state, ptr %3, i32 0, i32 9
  %5 = load i8, ptr %4, align 4, !range !3, !noundef !4
  %6 = trunc i8 %5 to i1
  br i1 %6, label %9, label %7

7:                                                ; preds = %1
  %8 = load ptr, ptr %2, align 8
  call void @chg_vc_kbd_led(ptr noundef %8, i32 noundef 2)
  br label %9

9:                                                ; preds = %7, %1
  ret void
}