; Function Attrs: nounwind uwtable
define internal void @fn_num(ptr noundef captures(none) %0) #0 {
  %2 = getelementptr inbounds nuw i8, ptr %0, i64 52
  %3 = load i8, ptr %2, align 4, !range !3, !noundef !4
  %4 = trunc nuw i8 %3 to i1
  br i1 %4, label %12, label %5

5:                                                ; preds = %1
  %6 = getelementptr inbounds nuw i8, ptr %0, i64 55
  %7 = load i8, ptr %6, align 1
  %8 = xor i8 %7, 2
  store i8 %8, ptr %6, align 1
  %9 = load i32, ptr %0, align 8
  %10 = zext i8 %8 to i64
  %11 = tail call i32 (i32, i64, ...) @ioctl(i32 noundef %9, i64 noundef 19250, i64 noundef %10) #12
  br label %12

12:                                               ; preds = %5, %1
  ret void
}